Certificate:
    Data:
        Version: 3 (0x2)
        Serial Number:
            37:78:71:0b:a0:a3:53:98:4a:3b:5e:01:5a:05:41:ad
    Signature Algorithm: sha1WithRSA
        Issuer: OU=Created by http://www.cyberghostvpn.com, O=CyberGhost, CN=\x00C\x00y\x00b\x00e\x00r\x00G\x00h\x00o\x00s\x00t\x00_\x005
        Validity
            Not Before: Feb 22 06:00:00 2014 GMT
            Not After : Feb 22 05:59:59 2025 GMT
        Subject: OU=Created by http://www.cyberghostvpn.com, O=CyberGhost, CN=\x00C\x00y\x00b\x00e\x00r\x00G\x00h\x00o\x00s\x00t\x00_\x005
        Subject Public Key Info:
            Public Key Algorithm: rsaEncryption
                Public-Key: (1024 bit)
                Modulus:
                    00:c9:40:89:74:d5:eb:d0:b1:b5:e8:bc:a4:60:79:
                    12:e8:2b:fc:96:73:a8:00:46:e2:97:1d:12:cf:dd:
                    b9:5c:85:26:99:2e:ef:0f:14:32:87:f5:aa:cc:9c:
                    64:c9:c1:01:f4:ec:25:94:87:ca:af:d8:3c:67:21:
                    1d:a9:6e:b5:63:8b:ba:fa:2f:95:a0:2d:b1:b2:17:
                    40:f2:fd:66:06:52:f9:08:cb:55:3e:1d:01:8b:0e:
                    41:8a:4e:40:c7:42:58:7a:b1:25:e3:d2:6e:9a:74:
                    78:90:ec:68:08:5a:4e:a6:a3:f2:c8:dc:e3:45:ed:
                    c8:05:d7:66:ba:34:2c:e2:61
                Exponent: 65537 (0x10001)
        X509v3 extensions:
            X509v3 Basic Constraints: critical
                CA:TRUE, pathlen:1
            X509v3 Extended Key Usage: 
                TLS Web Server Authentication
            2.5.29.1: 
                0....>.T(
.B+.<....c..l0j100...U...'Created by http://www.cyberghostvpn.com1.0...U.
.
CyberGhost1!0...U.....C.y.b.e.r.G.h.o.s.t._.5..7xq...S.J;^.Z.A.
    Signature Algorithm: sha1WithRSA
         9f:78:b3:a1:ae:9f:2b:c0:bb:27:6c:16:9d:6a:39:5a:e2:b2:
         86:07:6c:b2:8b:6d:8b:b0:24:4c:50:0b:1d:03:97:94:86:08:
         52:85:e6:49:4f:0c:3e:de:e2:58:d4:3b:ec:c9:5f:0a:9b:c0:
         08:56:48:ca:fe:5a:f0:42:34:e4:24:ff:2a:a8:c9:31:73:14:
         3f:b0:10:35:81:9a:6d:05:d0:f3:66:ce:d4:f8:74:19:ce:25:
         dd:ac:32:34:ba:08:28:c1:32:7e:03:ab:a7:17:2b:21:be:e4:
         01:4a:f5:bb:69:04:68:b5:98:84:81:88:ba:10:2e:d1:c6:82:
         05:82


 -----BEGIN CERTIFICATE-----
MIIDHjCCAougAwIBAgIQN3hxC6CjU5hKO14BWgVBrTAJBgUrDgMCHQUAMGoxMDAu
BgNVBAsTJ0NyZWF0ZWQgYnkgaHR0cDovL3d3dy5jeWJlcmdob3N0dnBuLmNvbTET
MBEGA1UEChMKQ3liZXJHaG9zdDEhMB8GA1UEAx4YAEMAeQBiAGUAcgBHAGgAbwBz
AHQAXwA1MB4XDTE0MDIyMjA2MDAwMFoXDTI1MDIyMjA1NTk1OVowajEwMC4GA1UE
CxMnQ3JlYXRlZCBieSBodHRwOi8vd3d3LmN5YmVyZ2hvc3R2cG4uY29tMRMwEQYD
VQQKEwpDeWJlckdob3N0MSEwHwYDVQQDHhgAQwB5AGIAZQByAEcAaABvAHMAdABf
ADUwgZ8wDQYJKoZIhvcNAQEBBQADgY0AMIGJAoGBAMlAiXTV69Cxtei8pGB5Eugr
uvovlaAtsbIXQPL9ZgZS+QjLVT4dAYsOQYpOQMdCWHqxJePSbpp0eJDsaAhaTqaj
8sjc40XtyAXXZro0LOJhAgMBAAGjgcwwgckwEgYDVR0TAQH/BAgwBgEB/wIBATAT
BgNVHSUEDDAKBggrBgEFBQcDATCBnQYDVR0BBIGVMIGSgBA+EVQoDbdCK9o88QPD
HWOOoWwwajEwMC4GA1UECxMnQ3JlYXRlZCBieSBodHRwOi8vd3d3LmN5YmVyZ2hv
c3R2cG4uY29tMRMwEQYDVQQKEwpDeWJlckdob3N0MSEwHwYDVQQDHhgAQwB5AGIA
ZQByAEcAaABvAHMAdABfADWCEDd4cQugo1OYSjteAVoFQa0wCQYFKw4DAh0FAAOB
gQCfeLOhrp8rwLsnbBadajla4rKGB2yyi22LsCRMUAsdA5eUhghSheZJTww+3uJY
1DvsyV8Km8AIVkjK/lrwQjTkJP8qqMkxcxQ/sBA1gZptBdDzZs7U+HQZziXdrDI0
uggowTJ+A6unFyshvuQBSvW7aQRotZiEgYi6EC7RxoIFgg==
 -----END CERTIFICATE-----
